target datalayout = "e-m:e-p270:32:32-p271:32:32-p272:64:64-i64:64-i128:128-f80:128-n8:16:32:64-S128"
target triple = "x86_64-pc-linux-gnu"

%struct.IDAMemRec = type { double, ptr, ptr, i32, double, double, ptr, i32, ptr, ptr, i32, ptr, ptr, i32, i32, double, double, ptr, i32, i32, i32, ptr, ptr, i32, ptr, ptr, ptr, i32, double, i32, i32, double, ptr, ptr, i32, ptr, ptr, i32, i32, i32, double, ptr, ptr, [6 x ptr], [6 x double], [6 x double], [6 x double], [6 x double], [6 x double], ptr, ptr, ptr, ptr, ptr, ptr, ptr, ptr, ptr, ptr, ptr, ptr, ptr, ptr, ptr, [6 x ptr], ptr, ptr, ptr, ptr, [6 x ptr], ptr, ptr, ptr, ptr, ptr, ptr, ptr, ptr, ptr, ptr, ptr, ptr, ptr, ptr, [6 x ptr], ptr, ptr, ptr, ptr, ptr, double, ptr, ptr, i32, i32, i32, i32, i32, i32, i32, double, double, double, i32, double, i32, i32, i32, i32, double, double, double, double, double, double, double, double, double, double, double, double, double, double, i32, i32, i32, i32, i32, i64, double, i32, i64, i64, i64, i64, i64, i64, i64, i64, i64, i64, i64, i64, i64, i64, i64, i64, i64, i64, i64, i64, i64, i64, i64, i64, ptr, ptr, ptr, i32, i32, i32, i32, i32, i32, i32, i32, i32, i32, i32, i32, i32, ptr, ptr, ptr, ptr, ptr, ptr, i32, i32, i32, i32, i32, i32, double, double, double, ptr, i32, ptr, ptr, double, double, double, ptr, ptr, ptr, double, double, i32, i32, i64, ptr, i32, i32, ptr, i32 }
%struct.IBBDPrecDataRec = type { i64, i64, i64, i64, double, ptr, ptr, ptr, ptr, ptr, i64, i64, i64, i64, ptr }
%struct.IDASpilsMemRec = type { i32, i32, double, i32, i32, double, double, double, i64, i64, i64, i64, i64, i64, i64, i64, i64, i64, i64, i64, ptr, ptr, ptr, ptr, ptr, ptr, ptr, i64, ptr, ptr, ptr, ptr, i32, ptr, ptr }

@.str = private unnamed_addr constant [10 x i8] c"IDABBDPRE\00", align 1
@.str.2 = private unnamed_addr constant [27 x i8] c"Integrator memory is NULL.\00", align 1
@.str.3 = private unnamed_addr constant [80 x i8] c"Linear solver memory is NULL. One of the SPILS linear solvers must be attached.\00", align 1
@.str.7 = private unnamed_addr constant [65 x i8] c"BBD peconditioner memory is NULL. IDABBDPrecInit must be called.\00", align 1
@.str.9 = private unnamed_addr constant [25 x i8] c"IDABBDPrecGetNumGfnEvals\00", align 1

; Function Attrs: nounwind uwtable
define i32 @IDABBDPrecGetNumGfnEvals(ptr noundef %0, ptr noundef %1) #0 {
  %3 = alloca i32, align 4
  %4 = alloca ptr, align 8
  %5 = alloca ptr, align 8
  %6 = alloca ptr, align 8
  %7 = alloca ptr, align 8
  %8 = alloca ptr, align 8
  %9 = alloca i32, align 4
  store ptr %0, ptr %4, align 8, !tbaa !3
  store ptr %1, ptr %5, align 8, !tbaa !57
  call void @llvm.lifetime.start.p0(i64 8, ptr %6) #6
  call void @llvm.lifetime.start.p0(i64 8, ptr %7) #6
  call void @llvm.lifetime.start.p0(i64 8, ptr %8) #6
  %10 = load ptr, ptr %4, align 8, !tbaa !3
  %11 = icmp eq ptr %10, null
  br i1 %11, label %12, label %13

12:                                               ; preds = %2
  call void (ptr, i32, ptr, ptr, ptr, ...) @IDAProcessError(ptr noundef null, i32 noundef -1, ptr noundef @.str, ptr noundef @.str.9, ptr noundef @.str.2)
  store i32 -1, ptr %3, align 4
  store i32 1, ptr %9, align 4
  br label %39

13:                                               ; preds = %2
  %14 = load ptr, ptr %4, align 8, !tbaa !3
  store ptr %14, ptr %6, align 8, !tbaa !11
  %15 = load ptr, ptr %6, align 8, !tbaa !11
  %16 = getelementptr inbounds nuw %struct.IDAMemRec, ptr %15, i32 0, i32 176
  %17 = load ptr, ptr %16, align 8, !tbaa !13
  %18 = icmp eq ptr %17, null
  br i1 %18, label %19, label %21

19:                                               ; preds = %13
  %20 = load ptr, ptr %6, align 8, !tbaa !11
  call void (ptr, i32, ptr, ptr, ptr, ...) @IDAProcessError(ptr noundef %20, i32 noundef -2, ptr noundef @.str, ptr noundef @.str.9, ptr noundef @.str.3)
  store i32 -2, ptr %3, align 4
  store i32 1, ptr %9, align 4
  br label %39

21:                                               ; preds = %13
  %22 = load ptr, ptr %6, align 8, !tbaa !11
  %23 = getelementptr inbounds nuw %struct.IDAMemRec, ptr %22, i32 0, i32 176
  %24 = load ptr, ptr %23, align 8, !tbaa !13
  store ptr %24, ptr %7, align 8, !tbaa !22
  %25 = load ptr, ptr %7, align 8, !tbaa !22
  %26 = getelementptr inbounds nuw %struct.IDASpilsMemRec, ptr %25, i32 0, i32 31
  %27 = load ptr, ptr %26, align 8, !tbaa !52
  %28 = icmp eq ptr %27, null
  br i1 %28, label %29, label %31

29:                                               ; preds = %21
  %30 = load ptr, ptr %6, align 8, !tbaa !11
  call void (ptr, i32, ptr, ptr, ptr, ...) @IDAProcessError(ptr noundef %30, i32 noundef -5, ptr noundef @.str, ptr noundef @.str.9, ptr noundef @.str.7)
  store i32 -5, ptr %3, align 4
  store i32 1, ptr %9, align 4
  br label %39

31:                                               ; preds = %21
  %32 = load ptr, ptr %7, align 8, !tbaa !22
  %33 = getelementptr inbounds nuw %struct.IDASpilsMemRec, ptr %32, i32 0, i32 31
  %34 = load ptr, ptr %33, align 8, !tbaa !52
  store ptr %34, ptr %8, align 8, !tbaa !30
  %35 = load ptr, ptr %8, align 8, !tbaa !30
  %36 = getelementptr inbounds nuw %struct.IBBDPrecDataRec, ptr %35, i32 0, i32 13
  %37 = load i64, ptr %36, align 8, !tbaa !51
  %38 = load ptr, ptr %5, align 8, !tbaa !57
  store i64 %37, ptr %38, align 8, !tbaa !7
  store i32 0, ptr %3, align 4
  store i32 1, ptr %9, align 4
  br label %39

39:                                               ; preds = %31, %29, %19, %12
  call void @llvm.lifetime.end.p0(i64 8, ptr %8) #6
  call void @llvm.lifetime.end.p0(i64 8, ptr %7) #6
  call void @llvm.lifetime.end.p0(i64 8, ptr %6) #6
  %40 = load i32, ptr %3, align 4
  ret i32 %40
}